; Function Attrs: mustprogress uwtable
define hidden void @_ZN4cvc58internal6theory22TheoryInferenceManager9mkExplainENS0_12NodeTemplateILb0EEE(ptr noalias sret(%"class.cvc5::internal::NodeTemplate") align 8 %agg.result, ptr nocapture noundef nonnull readonly align 8 dereferenceable(256) %this, ptr nocapture noundef readonly %n) local_unnamed_addr #3 align 2 personality ptr @__gxx_personality_v0 {
entry:
  %assumptions = alloca %"class.std::vector.285", align 8
  %agg.tmp = alloca %"class.cvc5::internal::NodeTemplate.590", align 8
  call void @llvm.memset.p0.i64(ptr noundef nonnull align 8 dereferenceable(24) %assumptions, i8 0, i64 24, i1 false)
  %0 = load ptr, ptr %n, align 8
  store ptr %0, ptr %agg.tmp, align 8
  invoke void @_ZN4cvc58internal6theory22TheoryInferenceManager7explainENS0_12NodeTemplateILb0EEERSt6vectorIS4_SaIS4_EE(ptr noundef nonnull align 8 dereferenceable(256) %this, ptr noundef nonnull %agg.tmp, ptr noundef nonnull align 8 dereferenceable(24) %assumptions)
          to label %invoke.cont3 unwind label %lpad2

invoke.cont3:                                     ; preds = %entry
  %call = invoke noundef ptr @_ZN4cvc58internal11NodeManager9currentNMEv()
          to label %invoke.cont4 unwind label %lpad

invoke.cont4:                                     ; preds = %invoke.cont3
  invoke void @_ZN4cvc58internal11NodeManager5mkAndILb0EEENS0_12NodeTemplateILb1EEERKSt6vectorINS3_IXT_EEESaIS6_EE(ptr sret(%"class.cvc5::internal::NodeTemplate") align 8 %agg.result, ptr noundef nonnull align 8 dereferenceable(3360) %call, ptr noundef nonnull align 8 dereferenceable(24) %assumptions)
          to label %invoke.cont5 unwind label %lpad

invoke.cont5:                                     ; preds = %invoke.cont4
  %1 = load ptr, ptr %assumptions, align 8
  %tobool.not.i.i.i = icmp eq ptr %1, null
  br i1 %tobool.not.i.i.i, label %_ZNSt6vectorIN4cvc58internal12NodeTemplateILb0EEESaIS3_EED2Ev.exit, label %if.then.i.i.i

if.then.i.i.i:                                    ; preds = %invoke.cont5
  call void @_ZdlPv(ptr noundef nonnull %1) #24
  br label %_ZNSt6vectorIN4cvc58internal12NodeTemplateILb0EEESaIS3_EED2Ev.exit

_ZNSt6vectorIN4cvc58internal12NodeTemplateILb0EEESaIS3_EED2Ev.exit: ; preds = %invoke.cont5, %if.then.i.i.i
  ret void

lpad:                                             ; preds = %invoke.cont4, %invoke.cont3
  %2 = landingpad { ptr, i32 }
          cleanup
  br label %ehcleanup

lpad2:                                            ; preds = %entry
  %3 = landingpad { ptr, i32 }
          cleanup
  br label %ehcleanup

ehcleanup:                                        ; preds = %lpad2, %lpad
  %.pn = phi { ptr, i32 } [ %2, %lpad ], [ %3, %lpad2 ]
  %4 = load ptr, ptr %assumptions, align 8
  %tobool.not.i.i.i2 = icmp eq ptr %4, null
  br i1 %tobool.not.i.i.i2, label %_ZNSt6vectorIN4cvc58internal12NodeTemplateILb0EEESaIS3_EED2Ev.exit4, label %if.then.i.i.i3

if.then.i.i.i3:                                   ; preds = %ehcleanup
  call void @_ZdlPv(ptr noundef nonnull %4) #24
  br label %_ZNSt6vectorIN4cvc58internal12NodeTemplateILb0EEESaIS3_EED2Ev.exit4

_ZNSt6vectorIN4cvc58internal12NodeTemplateILb0EEESaIS3_EED2Ev.exit4: ; preds = %ehcleanup, %if.then.i.i.i3
  resume { ptr, i32 } %.pn
}